target datalayout = "e-m:e-p270:32:32-p271:32:32-p272:64:64-i64:64-i128:128-f80:128-n8:16:32:64-S128"
target triple = "x86_64-pc-linux-gnu"

%"class.clang::QualType" = type { %"class.llvm::PointerIntPair" }
%"class.llvm::PointerIntPair" = type { %"struct.llvm::detail::PunnedPointer" }
%"struct.llvm::detail::PunnedPointer" = type { [8 x i8] }
%"class.clang::Expr" = type { %"class.clang::ValueStmt", %"class.clang::QualType" }
%"class.clang::ValueStmt" = type { %"class.clang::Stmt" }
%"class.clang::Stmt" = type { %union.anon.151 }
%union.anon.151 = type { %"class.clang::Stmt::PseudoObjectExprBitfields" }
%"class.clang::Stmt::PseudoObjectExprBitfields" = type { i64 }

; Function Attrs: mustprogress nounwind uwtable
define linkonce_odr hidden noundef ptr @_ZN5clang8CallExpr16getTrailingStmtsEv(ptr noundef nonnull align 8 dereferenceable(24) %0) #0 comdat align 2 {
  %2 = alloca ptr, align 8
  store ptr %0, ptr %2, align 8
  %3 = load ptr, ptr %2, align 8
  %4 = getelementptr inbounds nuw %"class.clang::Stmt", ptr %3, i32 0, i32 0
  %5 = load i32, ptr %4, align 8
  %6 = lshr i32 %5, 24
  %7 = sext i32 %6 to i64
  %8 = getelementptr inbounds i8, ptr %3, i64 %7
  ret ptr %8
}

; Function Attrs: mustprogress nounwind uwtable
define linkonce_odr hidden noundef i32 @_ZNK5clang8CallExpr13getNumPreArgsEv(ptr noundef nonnull align 8 dereferenceable(24) %0) #0 comdat align 2 {
  %2 = alloca ptr, align 8
  store ptr %0, ptr %2, align 8
  %3 = load ptr, ptr %2, align 8
  %4 = getelementptr inbounds nuw %"class.clang::Stmt", ptr %3, i32 0, i32 0
  %5 = load i32, ptr %4, align 8
  %6 = lshr i32 %5, 18
  %7 = and i32 %6, 1
  ret i32 %7
}

; Function Attrs: mustprogress nounwind uwtable
define linkonce_odr hidden noundef ptr @_ZNK5clang8CallExpr16getTrailingStmtsEv(ptr noundef nonnull align 8 dereferenceable(24) %0) #0 comdat align 2 {
  %2 = alloca ptr, align 8
  store ptr %0, ptr %2, align 8
  %3 = load ptr, ptr %2, align 8
  %4 = call noundef ptr @_ZN5clang8CallExpr16getTrailingStmtsEv(ptr noundef nonnull align 8 dereferenceable(24) %3)
  ret ptr %4
}

; Function Attrs: mustprogress nounwind uwtable
define linkonce_odr hidden noundef ptr @_ZNK5clang8CallExpr7getArgsEv(ptr noundef nonnull align 8 dereferenceable(24) %0) #0 comdat align 2 {
  %2 = alloca ptr, align 8
  store ptr %0, ptr %2, align 8
  %3 = load ptr, ptr %2, align 8
  %4 = call noundef ptr @_ZNK5clang8CallExpr16getTrailingStmtsEv(ptr noundef nonnull align 8 dereferenceable(24) %3)
  %5 = getelementptr inbounds ptr, ptr %4, i64 1
  %6 = call noundef i32 @_ZNK5clang8CallExpr13getNumPreArgsEv(ptr noundef nonnull align 8 dereferenceable(24) %3)
  %7 = zext i32 %6 to i64
  %8 = getelementptr inbounds ptr, ptr %5, i64 %7
  ret ptr %8
}

; Function Attrs: mustprogress nounwind uwtable
define linkonce_odr hidden i64 @_ZNK5clang4Expr7getTypeEv(ptr noundef nonnull align 8 dereferenceable(16) %0) #0 comdat align 2 {
  %2 = alloca %"class.clang::QualType", align 8
  %3 = alloca ptr, align 8
  store ptr %0, ptr %3, align 8
  %4 = load ptr, ptr %3, align 8
  %5 = getelementptr inbounds nuw %"class.clang::Expr", ptr %4, i32 0, i32 1
  call void @llvm.memcpy.p0.p0.i64(ptr align 8 %2, ptr align 8 %5, i64 8, i1 false)
  %6 = getelementptr inbounds nuw %"class.clang::QualType", ptr %2, i32 0, i32 0
  %7 = getelementptr inbounds nuw %"class.llvm::PointerIntPair", ptr %6, i32 0, i32 0
  %8 = getelementptr inbounds nuw %"struct.llvm::detail::PunnedPointer", ptr %7, i32 0, i32 0
  %9 = load i64, ptr %8, align 8
  ret i64 %9
}

; Function Attrs: mustprogress nounwind uwtable
define linkonce_odr hidden noundef ptr @_ZNK5clang8CallExpr6getArgEj(ptr noundef nonnull align 8 dereferenceable(24) %0, i32 noundef %1) #0 comdat align 2 {
  %3 = alloca ptr, align 8
  %4 = alloca i32, align 4
  store ptr %0, ptr %3, align 8
  store i32 %1, ptr %4, align 4
  %5 = load ptr, ptr %3, align 8
  %6 = call noundef ptr @_ZNK5clang8CallExpr7getArgsEv(ptr noundef nonnull align 8 dereferenceable(24) %5)
  %7 = load i32, ptr %4, align 4
  %8 = zext i32 %7 to i64
  %9 = getelementptr inbounds ptr, ptr %6, i64 %8
  %10 = load ptr, ptr %9, align 8
  ret ptr %10
}

; Function Attrs: mustprogress nounwind uwtable
define internal noundef zeroext i1 @_ZNK12_GLOBAL__N_120STLAlgorithmModeling8evalFindERN5clang4ento14CheckerContextEPKNS1_8CallExprE(ptr noundef nonnull align 8 dereferenceable(57) %0, ptr noundef nonnull align 8 dereferenceable(81) %1, ptr noundef %2) #0 align 2 {
  %4 = alloca i1, align 1
  %5 = alloca ptr, align 8
  %6 = alloca ptr, align 8
  %7 = alloca ptr, align 8
  %8 = alloca %"class.clang::QualType", align 8
  %9 = alloca %"class.clang::QualType", align 8
  %10 = alloca %"class.clang::QualType", align 8
  store ptr %0, ptr %5, align 8
  store ptr %1, ptr %6, align 8
  store ptr %2, ptr %7, align 8
  %11 = load ptr, ptr %5, align 8
  %12 = load ptr, ptr %7, align 8
  %13 = call noundef ptr @_ZNK5clang8CallExpr6getArgEj(ptr noundef nonnull align 8 dereferenceable(24) %12, i32 noundef 1)
  %14 = call i64 @_ZNK5clang4Expr7getTypeEv(ptr noundef nonnull align 8 dereferenceable(16) %13)
  %15 = getelementptr inbounds nuw %"class.clang::QualType", ptr %8, i32 0, i32 0
  %16 = getelementptr inbounds nuw %"class.llvm::PointerIntPair", ptr %15, i32 0, i32 0
  %17 = getelementptr inbounds nuw %"struct.llvm::detail::PunnedPointer", ptr %16, i32 0, i32 0
  store i64 %14, ptr %17, align 8
  %18 = call noundef zeroext i1 @_ZN5clang4ento8iterator14isIteratorTypeERKNS_8QualTypeE(ptr noundef nonnull align 8 dereferenceable(8) %8)
  %19 = xor i1 %18, true
  br i1 %19, label %20, label %21

20:                                               ; preds = %3
  store i1 false, ptr %4, align 1
  br label %44

21:                                               ; preds = %3
  %22 = load ptr, ptr %7, align 8
  %23 = call noundef ptr @_ZNK5clang8CallExpr6getArgEj(ptr noundef nonnull align 8 dereferenceable(24) %22, i32 noundef 0)
  %24 = call i64 @_ZNK5clang4Expr7getTypeEv(ptr noundef nonnull align 8 dereferenceable(16) %23)
  %25 = getelementptr inbounds nuw %"class.clang::QualType", ptr %9, i32 0, i32 0
  %26 = getelementptr inbounds nuw %"class.llvm::PointerIntPair", ptr %25, i32 0, i32 0
  %27 = getelementptr inbounds nuw %"struct.llvm::detail::PunnedPointer", ptr %26, i32 0, i32 0
  store i64 %24, ptr %27, align 8
  %28 = call noundef zeroext i1 @_ZN5clang4ento8iterator14isIteratorTypeERKNS_8QualTypeE(ptr noundef nonnull align 8 dereferenceable(8) %9)
  br i1 %28, label %29, label %32

29:                                               ; preds = %21
  %30 = load ptr, ptr %6, align 8
  %31 = load ptr, ptr %7, align 8
  call void @_ZNK12_GLOBAL__N_120STLAlgorithmModeling4FindERN5clang4ento14CheckerContextEPKNS1_8CallExprEj(ptr noundef nonnull align 8 dereferenceable(57) %11, ptr noundef nonnull align 8 dereferenceable(81) %30, ptr noundef %31, i32 noundef 0)
  store i1 true, ptr %4, align 1
  br label %44

32:                                               ; preds = %21
  %33 = load ptr, ptr %7, align 8
  %34 = call noundef ptr @_ZNK5clang8CallExpr6getArgEj(ptr noundef nonnull align 8 dereferenceable(24) %33, i32 noundef 2)
  %35 = call i64 @_ZNK5clang4Expr7getTypeEv(ptr noundef nonnull align 8 dereferenceable(16) %34)
  %36 = getelementptr inbounds nuw %"class.clang::QualType", ptr %10, i32 0, i32 0
  %37 = getelementptr inbounds nuw %"class.llvm::PointerIntPair", ptr %36, i32 0, i32 0
  %38 = getelementptr inbounds nuw %"struct.llvm::detail::PunnedPointer", ptr %37, i32 0, i32 0
  store i64 %35, ptr %38, align 8
  %39 = call noundef zeroext i1 @_ZN5clang4ento8iterator14isIteratorTypeERKNS_8QualTypeE(ptr noundef nonnull align 8 dereferenceable(8) %10)
  br i1 %39, label %40, label %43

40:                                               ; preds = %32
  %41 = load ptr, ptr %6, align 8
  %42 = load ptr, ptr %7, align 8
  call void @_ZNK12_GLOBAL__N_120STLAlgorithmModeling4FindERN5clang4ento14CheckerContextEPKNS1_8CallExprEj(ptr noundef nonnull align 8 dereferenceable(57) %11, ptr noundef nonnull align 8 dereferenceable(81) %41, ptr noundef %42, i32 noundef 1)
  store i1 true, ptr %4, align 1
  br label %44

43:                                               ; preds = %32
  store i1 false, ptr %4, align 1
  br label %44

44:                                               ; preds = %43, %40, %29, %20
  %45 = load i1, ptr %4, align 1
  ret i1 %45
}