; Function Attrs: mustprogress nounwind uwtable
define internal noundef zeroext i1 @_ZNK12_GLOBAL__N_120STLAlgorithmModeling8evalFindERN5clang4ento14CheckerContextEPKNS1_8CallExprE(ptr nocapture noundef nonnull readonly align 8 dereferenceable(57) %0, ptr nocapture noundef nonnull align 8 dereferenceable(81) %1, ptr noundef %2) #0 align 2 {
  %4 = alloca %"class.clang::QualType", align 8
  %5 = alloca %"class.clang::QualType", align 8
  %6 = alloca %"class.clang::QualType", align 8
  %7 = load i32, ptr %2, align 8
  %8 = lshr i32 %7, 24
  %9 = zext nneg i32 %8 to i64
  %10 = getelementptr inbounds i8, ptr %2, i64 %9
  %11 = getelementptr inbounds i8, ptr %10, i64 8
  %12 = lshr i32 %7, 18
  %13 = and i32 %12, 1
  %14 = zext nneg i32 %13 to i64
  %15 = getelementptr inbounds ptr, ptr %11, i64 %14
  %16 = getelementptr inbounds i8, ptr %15, i64 8
  %17 = load ptr, ptr %16, align 8
  %18 = getelementptr inbounds nuw i8, ptr %17, i64 8
  %.sroa.0.0.copyload.i = load i64, ptr %18, align 8
  store i64 %.sroa.0.0.copyload.i, ptr %4, align 8
  %19 = call noundef zeroext i1 @_ZN5clang4ento8iterator14isIteratorTypeERKNS_8QualTypeE(ptr noundef nonnull align 8 dereferenceable(8) %4) #14
  br i1 %19, label %20, label %47

20:                                               ; preds = %3
  %21 = load i32, ptr %2, align 8
  %22 = lshr i32 %21, 24
  %23 = zext nneg i32 %22 to i64
  %24 = getelementptr inbounds i8, ptr %2, i64 %23
  %25 = getelementptr inbounds i8, ptr %24, i64 8
  %26 = lshr i32 %21, 18
  %27 = and i32 %26, 1
  %28 = zext nneg i32 %27 to i64
  %29 = getelementptr inbounds ptr, ptr %25, i64 %28
  %30 = load ptr, ptr %29, align 8
  %31 = getelementptr inbounds nuw i8, ptr %30, i64 8
  %.sroa.0.0.copyload.i9 = load i64, ptr %31, align 8
  store i64 %.sroa.0.0.copyload.i9, ptr %5, align 8
  %32 = call noundef zeroext i1 @_ZN5clang4ento8iterator14isIteratorTypeERKNS_8QualTypeE(ptr noundef nonnull align 8 dereferenceable(8) %5) #14
  br i1 %32, label %.sink.split, label %33

33:                                               ; preds = %20
  %34 = load i32, ptr %2, align 8
  %35 = lshr i32 %34, 24
  %36 = zext nneg i32 %35 to i64
  %37 = getelementptr inbounds i8, ptr %2, i64 %36
  %38 = getelementptr inbounds i8, ptr %37, i64 8
  %39 = lshr i32 %34, 18
  %40 = and i32 %39, 1
  %41 = zext nneg i32 %40 to i64
  %42 = getelementptr inbounds ptr, ptr %38, i64 %41
  %43 = getelementptr inbounds i8, ptr %42, i64 16
  %44 = load ptr, ptr %43, align 8
  %45 = getelementptr inbounds nuw i8, ptr %44, i64 8
  %.sroa.0.0.copyload.i10 = load i64, ptr %45, align 8
  store i64 %.sroa.0.0.copyload.i10, ptr %6, align 8
  %46 = call noundef zeroext i1 @_ZN5clang4ento8iterator14isIteratorTypeERKNS_8QualTypeE(ptr noundef nonnull align 8 dereferenceable(8) %6) #14
  br i1 %46, label %.sink.split, label %47

.sink.split:                                      ; preds = %33, %20
  %.sink = phi i32 [ 0, %20 ], [ 1, %33 ]
  call fastcc void @_ZNK12_GLOBAL__N_120STLAlgorithmModeling4FindERN5clang4ento14CheckerContextEPKNS1_8CallExprEj(ptr noundef nonnull align 8 dereferenceable(57) %0, ptr noundef nonnull align 8 dereferenceable(81) %1, ptr noundef nonnull %2, i32 noundef %.sink)
  br label %47

47:                                               ; preds = %.sink.split, %33, %3
  %.0 = phi i1 [ false, %3 ], [ false, %33 ], [ true, %.sink.split ]
  ret i1 %.0
}